target datalayout = "e-m:e-p270:32:32-p271:32:32-p272:64:64-i64:64-i128:128-f80:128-n8:16:32:64-S128"
target triple = "x86_64-pc-linux-gnu"

%"class.sat::ddfw" = type <{ %"struct.sat::ddfw::config", %class.reslimit, %class.vector.1, %class.svector.2, %class.svector.4, %class.svector.6, %class.svector.6, %class.svector.8, i32, [4 x i8], %class.vector.10, %class.svector.11, %class.svector.11, i32, i32, i32, [4 x i8], %class.indexed_uint_set, %class.indexed_uint_set, %class.random_gen, [4 x i8], i64, i32, i32, i32, i32, i64, i64, i64, i64, i64, i32, i32, %class.u_map, %class.stopwatch, %class.svector.11, i8, [7 x i8], %class.scoped_ptr, %"class.std::function", i32, [4 x i8], %class.tracked_uint_set, %class.svector.11, i8, i8, [6 x i8] }>
%"struct.sat::ddfw::config" = type { i32, i32, i32, i32, i32, i32, double }
%class.reslimit = type { %"struct.std::atomic", i8, i64, i64, %class.svector, %class.ptr_vector }
%"struct.std::atomic" = type { %"struct.std::__atomic_base" }
%"struct.std::__atomic_base" = type { i32 }
%class.svector = type { %class.vector }
%class.vector = type { ptr }
%class.ptr_vector = type { %class.vector.0 }
%class.vector.0 = type { ptr }
%class.vector.1 = type { ptr }
%class.svector.2 = type { %class.vector.3 }
%class.vector.3 = type { ptr }
%class.svector.4 = type { %class.vector.5 }
%class.vector.5 = type { ptr }
%class.svector.6 = type { %class.vector.7 }
%class.vector.7 = type { ptr }
%class.svector.8 = type { %class.vector.9 }
%class.vector.9 = type { ptr }
%class.vector.10 = type { ptr }
%class.indexed_uint_set = type { i32, %class.svector.11, %class.svector.11 }
%class.random_gen = type { i32 }
%class.u_map = type { %class.map }
%class.map = type { %class.table2map }
%class.table2map = type { %class.core_hashtable }
%class.core_hashtable = type <{ ptr, i32, i32, i32, [4 x i8] }>
%class.stopwatch = type <{ %"class.std::chrono::time_point", %"class.std::chrono::duration", i8, [7 x i8] }>
%"class.std::chrono::time_point" = type { %"class.std::chrono::duration" }
%"class.std::chrono::duration" = type { i64 }
%class.scoped_ptr = type { ptr }
%"class.std::function" = type { %"class.std::_Function_base", ptr }
%"class.std::_Function_base" = type { %"union.std::_Any_data", ptr }
%"union.std::_Any_data" = type { %"union.std::_Nocopy_types" }
%"union.std::_Nocopy_types" = type { { i64, i64 } }
%class.tracked_uint_set = type { %class.svector.13, %class.svector.11 }
%class.svector.13 = type { %class.vector.14 }
%class.vector.14 = type { ptr }
%class.svector.11 = type { %class.vector.12 }
%class.vector.12 = type { ptr }
%struct.sat_params = type { ptr, %class.params_ref }
%class.params_ref = type { ptr }

@.str.26 = private unnamed_addr constant [4 x i8] c"sat\00", align 1
@.str.27 = private unnamed_addr constant [24 x i8] c"ddfw.init_clause_weight\00", align 1
@.str.28 = private unnamed_addr constant [20 x i8] c"ddfw.use_reward_pct\00", align 1
@.str.29 = private unnamed_addr constant [17 x i8] c"ddfw.reinit_base\00", align 1
@.str.30 = private unnamed_addr constant [18 x i8] c"ddfw.restart_base\00", align 1

; Function Attrs: inlinehint mustprogress nounwind uwtable
define linkonce_odr hidden void @_ZN10sat_paramsD2Ev(ptr noundef nonnull align 8 dereferenceable(16) %0) unnamed_addr #5 comdat align 2 {
  %2 = alloca ptr, align 8
  store ptr %0, ptr %2, align 8, !tbaa !225
  %3 = load ptr, ptr %2, align 8
  %4 = getelementptr inbounds nuw %struct.sat_params, ptr %3, i32 0, i32 1
  call void @_ZN10params_refD1Ev(ptr noundef nonnull align 8 dereferenceable(8) %4) #3
  ret void
}

; Function Attrs: mustprogress uwtable
define linkonce_odr hidden noundef i32 @_ZNK10sat_params17ddfw_restart_baseEv(ptr noundef nonnull align 8 dereferenceable(16) %0) #6 comdat align 2 {
  %2 = alloca ptr, align 8
  store ptr %0, ptr %2, align 8, !tbaa !225
  %3 = load ptr, ptr %2, align 8
  %4 = getelementptr inbounds nuw %struct.sat_params, ptr %3, i32 0, i32 0
  %5 = load ptr, ptr %4, align 8, !tbaa !227
  %6 = getelementptr inbounds nuw %struct.sat_params, ptr %3, i32 0, i32 1
  %7 = call noundef i32 @_ZNK10params_ref8get_uintEPKcRKS_j(ptr noundef nonnull align 8 dereferenceable(8) %5, ptr noundef @.str.30, ptr noundef nonnull align 8 dereferenceable(8) %6, i32 noundef 100000)
  ret i32 %7
}

; Function Attrs: mustprogress uwtable
define linkonce_odr hidden noundef i32 @_ZNK10sat_params16ddfw_reinit_baseEv(ptr noundef nonnull align 8 dereferenceable(16) %0) #6 comdat align 2 {
  %2 = alloca ptr, align 8
  store ptr %0, ptr %2, align 8, !tbaa !225
  %3 = load ptr, ptr %2, align 8
  %4 = getelementptr inbounds nuw %struct.sat_params, ptr %3, i32 0, i32 0
  %5 = load ptr, ptr %4, align 8, !tbaa !227
  %6 = getelementptr inbounds nuw %struct.sat_params, ptr %3, i32 0, i32 1
  %7 = call noundef i32 @_ZNK10params_ref8get_uintEPKcRKS_j(ptr noundef nonnull align 8 dereferenceable(8) %5, ptr noundef @.str.29, ptr noundef nonnull align 8 dereferenceable(8) %6, i32 noundef 10000)
  ret i32 %7
}

; Function Attrs: mustprogress uwtable
define linkonce_odr hidden noundef i32 @_ZNK10sat_params19ddfw_use_reward_pctEv(ptr noundef nonnull align 8 dereferenceable(16) %0) #6 comdat align 2 {
  %2 = alloca ptr, align 8
  store ptr %0, ptr %2, align 8, !tbaa !225
  %3 = load ptr, ptr %2, align 8
  %4 = getelementptr inbounds nuw %struct.sat_params, ptr %3, i32 0, i32 0
  %5 = load ptr, ptr %4, align 8, !tbaa !227
  %6 = getelementptr inbounds nuw %struct.sat_params, ptr %3, i32 0, i32 1
  %7 = call noundef i32 @_ZNK10params_ref8get_uintEPKcRKS_j(ptr noundef nonnull align 8 dereferenceable(8) %5, ptr noundef @.str.28, ptr noundef nonnull align 8 dereferenceable(8) %6, i32 noundef 15)
  ret i32 %7
}

; Function Attrs: mustprogress uwtable
define linkonce_odr hidden noundef i32 @_ZNK10sat_params23ddfw_init_clause_weightEv(ptr noundef nonnull align 8 dereferenceable(16) %0) #6 comdat align 2 {
  %2 = alloca ptr, align 8
  store ptr %0, ptr %2, align 8, !tbaa !225
  %3 = load ptr, ptr %2, align 8
  %4 = getelementptr inbounds nuw %struct.sat_params, ptr %3, i32 0, i32 0
  %5 = load ptr, ptr %4, align 8, !tbaa !227
  %6 = getelementptr inbounds nuw %struct.sat_params, ptr %3, i32 0, i32 1
  %7 = call noundef i32 @_ZNK10params_ref8get_uintEPKcRKS_j(ptr noundef nonnull align 8 dereferenceable(8) %5, ptr noundef @.str.27, ptr noundef nonnull align 8 dereferenceable(8) %6, i32 noundef 8)
  ret i32 %7
}

; Function Attrs: mustprogress uwtable
define linkonce_odr hidden void @_ZN10sat_paramsC2ERK10params_ref(ptr noundef nonnull align 8 dereferenceable(16) %0, ptr noundef nonnull align 8 dereferenceable(8) %1) unnamed_addr #6 comdat align 2 {
  %3 = alloca ptr, align 8
  %4 = alloca ptr, align 8
  store ptr %0, ptr %3, align 8, !tbaa !225
  store ptr %1, ptr %4, align 8, !tbaa !223
  %5 = load ptr, ptr %3, align 8
  %6 = getelementptr inbounds nuw %struct.sat_params, ptr %5, i32 0, i32 0
  %7 = load ptr, ptr %4, align 8, !tbaa !223
  store ptr %7, ptr %6, align 8, !tbaa !223
  %8 = getelementptr inbounds nuw %struct.sat_params, ptr %5, i32 0, i32 1
  call void @_ZN7gparams10get_moduleEPKc(ptr dead_on_unwind writable sret(%class.params_ref) align 8 %8, ptr noundef @.str.26)
  ret void
}

; Function Attrs: mustprogress uwtable
define hidden void @_ZN3sat4ddfw11updt_paramsERK10params_ref(ptr noundef nonnull align 8 dereferenceable(434) %0, ptr noundef nonnull align 8 dereferenceable(8) %1) #6 align 2 personality ptr @__gxx_personality_v0 {
  %3 = alloca ptr, align 8
  %4 = alloca ptr, align 8
  %5 = alloca %struct.sat_params, align 8
  %6 = alloca ptr, align 8
  %7 = alloca i32, align 4
  store ptr %0, ptr %3, align 8, !tbaa !3
  store ptr %1, ptr %4, align 8, !tbaa !223
  %8 = load ptr, ptr %3, align 8
  call void @llvm.lifetime.start.p0(i64 16, ptr %5) #3
  %9 = load ptr, ptr %4, align 8, !tbaa !223
  call void @_ZN10sat_paramsC2ERK10params_ref(ptr noundef nonnull align 8 dereferenceable(16) %5, ptr noundef nonnull align 8 dereferenceable(8) %9)
  %10 = invoke noundef i32 @_ZNK10sat_params23ddfw_init_clause_weightEv(ptr noundef nonnull align 8 dereferenceable(16) %5)
          to label %11 unwind label %26

11:                                               ; preds = %2
  %12 = getelementptr inbounds nuw %"class.sat::ddfw", ptr %8, i32 0, i32 0
  %13 = getelementptr inbounds nuw %"struct.sat::ddfw::config", ptr %12, i32 0, i32 1
  store i32 %10, ptr %13, align 4, !tbaa !118
  %14 = invoke noundef i32 @_ZNK10sat_params19ddfw_use_reward_pctEv(ptr noundef nonnull align 8 dereferenceable(16) %5)
          to label %15 unwind label %26

15:                                               ; preds = %11
  %16 = getelementptr inbounds nuw %"class.sat::ddfw", ptr %8, i32 0, i32 0
  %17 = getelementptr inbounds nuw %"struct.sat::ddfw::config", ptr %16, i32 0, i32 0
  store i32 %14, ptr %17, align 8, !tbaa !151
  %18 = invoke noundef i32 @_ZNK10sat_params16ddfw_reinit_baseEv(ptr noundef nonnull align 8 dereferenceable(16) %5)
          to label %19 unwind label %26

19:                                               ; preds = %15
  %20 = getelementptr inbounds nuw %"class.sat::ddfw", ptr %8, i32 0, i32 0
  %21 = getelementptr inbounds nuw %"struct.sat::ddfw::config", ptr %20, i32 0, i32 4
  store i32 %18, ptr %21, align 8, !tbaa !98
  %22 = invoke noundef i32 @_ZNK10sat_params17ddfw_restart_baseEv(ptr noundef nonnull align 8 dereferenceable(16) %5)
          to label %23 unwind label %26

23:                                               ; preds = %19
  %24 = getelementptr inbounds nuw %"class.sat::ddfw", ptr %8, i32 0, i32 0
  %25 = getelementptr inbounds nuw %"struct.sat::ddfw::config", ptr %24, i32 0, i32 3
  store i32 %22, ptr %25, align 4, !tbaa !101
  call void @_ZN10sat_paramsD2Ev(ptr noundef nonnull align 8 dereferenceable(16) %5) #3
  call void @llvm.lifetime.end.p0(i64 16, ptr %5) #3
  ret void

26:                                               ; preds = %19, %15, %11, %2
  %27 = landingpad { ptr, i32 }
          cleanup
  %28 = extractvalue { ptr, i32 } %27, 0
  store ptr %28, ptr %6, align 8
  %29 = extractvalue { ptr, i32 } %27, 1
  store i32 %29, ptr %7, align 4
  call void @_ZN10sat_paramsD2Ev(ptr noundef nonnull align 8 dereferenceable(16) %5) #3
  call void @llvm.lifetime.end.p0(i64 16, ptr %5) #3
  br label %30

30:                                               ; preds = %26
  %31 = load ptr, ptr %6, align 8
  %32 = load i32, ptr %7, align 4
  %33 = insertvalue { ptr, i32 } poison, ptr %31, 0
  %34 = insertvalue { ptr, i32 } %33, i32 %32, 1
  resume { ptr, i32 } %34
}