; Function Attrs: mustprogress uwtable
define hidden void @_ZN3sat4ddfw11updt_paramsERK10params_ref(ptr noundef nonnull writeonly align 8 captures(none) dereferenceable(434) %0, ptr noundef nonnull align 8 dereferenceable(8) %1) local_unnamed_addr #4 align 2 personality ptr @__gxx_personality_v0 {
  %3 = alloca %struct.sat_params, align 8
  call void @llvm.lifetime.start.p0(i64 16, ptr nonnull %3) #27
  store ptr %1, ptr %3, align 8, !tbaa !197
  %4 = getelementptr inbounds nuw i8, ptr %3, i64 8
  call void @_ZN7gparams10get_moduleEPKc(ptr dead_on_unwind nonnull writable sret(%class.params_ref) align 8 %4, ptr noundef nonnull @.str.26)
  %5 = load ptr, ptr %3, align 8, !tbaa !199
  %6 = invoke noundef i32 @_ZNK10params_ref8get_uintEPKcRKS_j(ptr noundef nonnull align 8 dereferenceable(8) %5, ptr noundef nonnull @.str.27, ptr noundef nonnull align 8 dereferenceable(8) %4, i32 noundef 8)
          to label %_ZNK10sat_params23ddfw_init_clause_weightEv.exit unwind label %16

_ZNK10sat_params23ddfw_init_clause_weightEv.exit: ; preds = %2
  %7 = getelementptr inbounds nuw i8, ptr %0, i64 4
  store i32 %6, ptr %7, align 4, !tbaa !168
  %8 = load ptr, ptr %3, align 8, !tbaa !199
  %9 = invoke noundef i32 @_ZNK10params_ref8get_uintEPKcRKS_j(ptr noundef nonnull align 8 dereferenceable(8) %8, ptr noundef nonnull @.str.28, ptr noundef nonnull align 8 dereferenceable(8) %4, i32 noundef 15)
          to label %_ZNK10sat_params19ddfw_use_reward_pctEv.exit unwind label %16

_ZNK10sat_params19ddfw_use_reward_pctEv.exit:     ; preds = %_ZNK10sat_params23ddfw_init_clause_weightEv.exit
  store i32 %9, ptr %0, align 8, !tbaa !104
  %10 = load ptr, ptr %3, align 8, !tbaa !199
  %11 = invoke noundef i32 @_ZNK10params_ref8get_uintEPKcRKS_j(ptr noundef nonnull align 8 dereferenceable(8) %10, ptr noundef nonnull @.str.29, ptr noundef nonnull align 8 dereferenceable(8) %4, i32 noundef 10000)
          to label %_ZNK10sat_params16ddfw_reinit_baseEv.exit unwind label %16

_ZNK10sat_params16ddfw_reinit_baseEv.exit:        ; preds = %_ZNK10sat_params19ddfw_use_reward_pctEv.exit
  %12 = getelementptr inbounds nuw i8, ptr %0, i64 16
  store i32 %11, ptr %12, align 8, !tbaa !92
  %13 = load ptr, ptr %3, align 8, !tbaa !199
  %14 = invoke noundef i32 @_ZNK10params_ref8get_uintEPKcRKS_j(ptr noundef nonnull align 8 dereferenceable(8) %13, ptr noundef nonnull @.str.30, ptr noundef nonnull align 8 dereferenceable(8) %4, i32 noundef 100000)
          to label %_ZNK10sat_params17ddfw_restart_baseEv.exit unwind label %16

_ZNK10sat_params17ddfw_restart_baseEv.exit:       ; preds = %_ZNK10sat_params16ddfw_reinit_baseEv.exit
  %15 = getelementptr inbounds nuw i8, ptr %0, i64 12
  store i32 %14, ptr %15, align 4, !tbaa !95
  call void @_ZN10params_refD1Ev(ptr noundef nonnull align 8 dereferenceable(8) %4) #27
  call void @llvm.lifetime.end.p0(i64 16, ptr nonnull %3) #27
  ret void

16:                                               ; preds = %_ZNK10sat_params16ddfw_reinit_baseEv.exit, %_ZNK10sat_params19ddfw_use_reward_pctEv.exit, %_ZNK10sat_params23ddfw_init_clause_weightEv.exit, %2
  %17 = landingpad { ptr, i32 }
          cleanup
  call void @_ZN10params_refD1Ev(ptr noundef nonnull align 8 dereferenceable(8) %4) #27
  call void @llvm.lifetime.end.p0(i64 16, ptr nonnull %3) #27
  resume { ptr, i32 } %17
}